; Function Attrs: mustprogress uwtable
define void @_ZN2cv9videostab18ToFileMotionWriter8estimateERKNS_3MatES4_Pb(ptr dead_on_unwind noalias writable sret(%"class.cv::Mat") align 8 %0, ptr noundef nonnull align 8 dereferenceable(544) %1, ptr noundef nonnull align 8 dereferenceable(96) %2, ptr noundef nonnull align 8 dereferenceable(96) %3, ptr noundef writeonly %4) unnamed_addr #3 align 2 personality ptr @__gxx_personality_v0 {
  %6 = alloca i8, align 1
  %7 = getelementptr inbounds i8, ptr %1, i64 528
  %8 = load ptr, ptr %7, align 8
  %9 = load ptr, ptr %8, align 8
  %10 = getelementptr inbounds i8, ptr %9, i64 40
  %11 = load ptr, ptr %10, align 8
  call void %11(ptr dead_on_unwind writable sret(%"class.cv::Mat") align 8 %0, ptr noundef nonnull align 8 dereferenceable(12) %8, ptr noundef nonnull align 8 dereferenceable(96) %2, ptr noundef nonnull align 8 dereferenceable(96) %3, ptr noundef nonnull %6)
  %12 = getelementptr inbounds i8, ptr %1, i64 16
  %13 = getelementptr inbounds i8, ptr %0, i64 16
  %14 = load ptr, ptr %13, align 8
  %15 = getelementptr inbounds i8, ptr %0, i64 72
  %16 = load float, ptr %14, align 4
  %17 = invoke noundef nonnull align 8 dereferenceable(8) ptr @_ZNSolsEf(ptr noundef nonnull align 8 dereferenceable(8) %12, float noundef %16)
          to label %18 unwind label %105

18:                                               ; preds = %5
  %19 = invoke noundef nonnull align 8 dereferenceable(8) ptr @_ZStlsISt11char_traitsIcEERSt13basic_ostreamIcT_ES5_PKc(ptr noundef nonnull align 8 dereferenceable(8) %17, ptr noundef nonnull @.str.8)
          to label %20 unwind label %105

20:                                               ; preds = %18
  %21 = load ptr, ptr %13, align 8
  %22 = getelementptr inbounds i8, ptr %21, i64 4
  %23 = load float, ptr %22, align 4
  %24 = invoke noundef nonnull align 8 dereferenceable(8) ptr @_ZNSolsEf(ptr noundef nonnull align 8 dereferenceable(8) %19, float noundef %23)
          to label %25 unwind label %105

25:                                               ; preds = %20
  %26 = invoke noundef nonnull align 8 dereferenceable(8) ptr @_ZStlsISt11char_traitsIcEERSt13basic_ostreamIcT_ES5_PKc(ptr noundef nonnull align 8 dereferenceable(8) %24, ptr noundef nonnull @.str.8)
          to label %27 unwind label %105

27:                                               ; preds = %25
  %28 = load ptr, ptr %13, align 8
  %29 = getelementptr inbounds i8, ptr %28, i64 8
  %30 = load float, ptr %29, align 4
  %31 = invoke noundef nonnull align 8 dereferenceable(8) ptr @_ZNSolsEf(ptr noundef nonnull align 8 dereferenceable(8) %26, float noundef %30)
          to label %32 unwind label %105

32:                                               ; preds = %27
  %33 = invoke noundef nonnull align 8 dereferenceable(8) ptr @_ZStlsISt11char_traitsIcEERSt13basic_ostreamIcT_ES5_PKc(ptr noundef nonnull align 8 dereferenceable(8) %31, ptr noundef nonnull @.str.8)
          to label %34 unwind label %105

34:                                               ; preds = %32
  %35 = load ptr, ptr %13, align 8
  %36 = load ptr, ptr %15, align 8
  %37 = load i64, ptr %36, align 8
  %38 = getelementptr inbounds i8, ptr %35, i64 %37
  %39 = load float, ptr %38, align 4
  %40 = invoke noundef nonnull align 8 dereferenceable(8) ptr @_ZNSolsEf(ptr noundef nonnull align 8 dereferenceable(8) %33, float noundef %39)
          to label %41 unwind label %105

41:                                               ; preds = %34
  %42 = invoke noundef nonnull align 8 dereferenceable(8) ptr @_ZStlsISt11char_traitsIcEERSt13basic_ostreamIcT_ES5_PKc(ptr noundef nonnull align 8 dereferenceable(8) %40, ptr noundef nonnull @.str.8)
          to label %43 unwind label %105

43:                                               ; preds = %41
  %44 = load ptr, ptr %13, align 8
  %45 = load ptr, ptr %15, align 8
  %46 = load i64, ptr %45, align 8
  %47 = getelementptr inbounds i8, ptr %44, i64 %46
  %48 = getelementptr inbounds i8, ptr %47, i64 4
  %49 = load float, ptr %48, align 4
  %50 = invoke noundef nonnull align 8 dereferenceable(8) ptr @_ZNSolsEf(ptr noundef nonnull align 8 dereferenceable(8) %42, float noundef %49)
          to label %51 unwind label %105

51:                                               ; preds = %43
  %52 = invoke noundef nonnull align 8 dereferenceable(8) ptr @_ZStlsISt11char_traitsIcEERSt13basic_ostreamIcT_ES5_PKc(ptr noundef nonnull align 8 dereferenceable(8) %50, ptr noundef nonnull @.str.8)
          to label %53 unwind label %105

53:                                               ; preds = %51
  %54 = load ptr, ptr %13, align 8
  %55 = load ptr, ptr %15, align 8
  %56 = load i64, ptr %55, align 8
  %57 = getelementptr inbounds i8, ptr %54, i64 %56
  %58 = getelementptr inbounds i8, ptr %57, i64 8
  %59 = load float, ptr %58, align 4
  %60 = invoke noundef nonnull align 8 dereferenceable(8) ptr @_ZNSolsEf(ptr noundef nonnull align 8 dereferenceable(8) %52, float noundef %59)
          to label %61 unwind label %105

61:                                               ; preds = %53
  %62 = invoke noundef nonnull align 8 dereferenceable(8) ptr @_ZStlsISt11char_traitsIcEERSt13basic_ostreamIcT_ES5_PKc(ptr noundef nonnull align 8 dereferenceable(8) %60, ptr noundef nonnull @.str.8)
          to label %63 unwind label %105

63:                                               ; preds = %61
  %64 = load ptr, ptr %13, align 8
  %65 = load ptr, ptr %15, align 8
  %66 = load i64, ptr %65, align 8
  %67 = shl i64 %66, 1
  %68 = getelementptr inbounds i8, ptr %64, i64 %67
  %69 = load float, ptr %68, align 4
  %70 = invoke noundef nonnull align 8 dereferenceable(8) ptr @_ZNSolsEf(ptr noundef nonnull align 8 dereferenceable(8) %62, float noundef %69)
          to label %71 unwind label %105

71:                                               ; preds = %63
  %72 = invoke noundef nonnull align 8 dereferenceable(8) ptr @_ZStlsISt11char_traitsIcEERSt13basic_ostreamIcT_ES5_PKc(ptr noundef nonnull align 8 dereferenceable(8) %70, ptr noundef nonnull @.str.8)
          to label %73 unwind label %105

73:                                               ; preds = %71
  %74 = load ptr, ptr %13, align 8
  %75 = load ptr, ptr %15, align 8
  %76 = load i64, ptr %75, align 8
  %77 = shl i64 %76, 1
  %78 = getelementptr inbounds i8, ptr %74, i64 %77
  %79 = getelementptr inbounds i8, ptr %78, i64 4
  %80 = load float, ptr %79, align 4
  %81 = invoke noundef nonnull align 8 dereferenceable(8) ptr @_ZNSolsEf(ptr noundef nonnull align 8 dereferenceable(8) %72, float noundef %80)
          to label %82 unwind label %105

82:                                               ; preds = %73
  %83 = invoke noundef nonnull align 8 dereferenceable(8) ptr @_ZStlsISt11char_traitsIcEERSt13basic_ostreamIcT_ES5_PKc(ptr noundef nonnull align 8 dereferenceable(8) %81, ptr noundef nonnull @.str.8)
          to label %84 unwind label %105

84:                                               ; preds = %82
  %85 = load ptr, ptr %13, align 8
  %86 = load ptr, ptr %15, align 8
  %87 = load i64, ptr %86, align 8
  %88 = shl i64 %87, 1
  %89 = getelementptr inbounds i8, ptr %85, i64 %88
  %90 = getelementptr inbounds i8, ptr %89, i64 8
  %91 = load float, ptr %90, align 4
  %92 = invoke noundef nonnull align 8 dereferenceable(8) ptr @_ZNSolsEf(ptr noundef nonnull align 8 dereferenceable(8) %83, float noundef %91)
          to label %93 unwind label %105

93:                                               ; preds = %84
  %94 = invoke noundef nonnull align 8 dereferenceable(8) ptr @_ZStlsISt11char_traitsIcEERSt13basic_ostreamIcT_ES5_PKc(ptr noundef nonnull align 8 dereferenceable(8) %92, ptr noundef nonnull @.str.8)
          to label %95 unwind label %105

95:                                               ; preds = %93
  %96 = load i8, ptr %6, align 1
  %97 = trunc i8 %96 to i1
  %98 = invoke noundef nonnull align 8 dereferenceable(8) ptr @_ZNSolsEb(ptr noundef nonnull align 8 dereferenceable(8) %94, i1 noundef zeroext %97)
          to label %99 unwind label %105

99:                                               ; preds = %95
  %100 = invoke noundef nonnull align 8 dereferenceable(8) ptr @_ZNSolsEPFRSoS_E(ptr noundef nonnull align 8 dereferenceable(8) %98, ptr noundef nonnull @_ZSt4endlIcSt11char_traitsIcEERSt13basic_ostreamIT_T0_ES6_)
          to label %101 unwind label %105

101:                                              ; preds = %99
  %.not = icmp eq ptr %4, null
  br i1 %.not, label %107, label %102

102:                                              ; preds = %101
  %103 = load i8, ptr %6, align 1
  %104 = and i8 %103, 1
  store i8 %104, ptr %4, align 1
  br label %107

105:                                              ; preds = %99, %95, %93, %84, %82, %73, %71, %63, %61, %53, %51, %43, %41, %34, %32, %27, %25, %20, %18, %5
  %106 = landingpad { ptr, i32 }
          cleanup
  call void @_ZN2cv3MatD1Ev(ptr noundef nonnull align 8 dereferenceable(96) %0) #21
  resume { ptr, i32 } %106

107:                                              ; preds = %101, %102
  ret void
}